; ModuleID = '2/81.c'
source_filename = "2/81.c"
target datalayout = "e-m:e-p270:32:32-p271:32:32-p272:64:64-i64:64-f80:128-n8:16:32:64-S128"
target triple = "x86_64-pc-linux-gnu"

@.str = private unnamed_addr constant [3 x i8] c"%d\00", align 1
@.str.1 = private unnamed_addr constant [3 x i8] c"%s\00", align 1
@.str.2 = private unnamed_addr constant [4 x i8] c"%c\0A\00", align 1
@.str.3 = private unnamed_addr constant [4 x i8] c"%d\0A\00", align 1

; Function Attrs: noinline nounwind uwtable
define dso_local void @main() #0 {
  %1 = alloca [999 x [26 x i8]], align 16
  %2 = alloca i8, align 1
  %3 = alloca [999 x i32], align 16
  %4 = alloca [26 x i32], align 16
  %5 = alloca i32, align 4
  %6 = alloca i32, align 4
  %7 = alloca i32, align 4
  %8 = alloca i32, align 4
  %9 = alloca i32, align 4
  %10 = call i32 (i8*, ...) @__isoc99_scanf(i8* getelementptr inbounds ([3 x i8], [3 x i8]* @.str, i64 0, i64 0), i32* %7)
  store i32 0, i32* %5, align 4
  br label %11

11:                                               ; preds = %18, %0
  %12 = load i32, i32* %5, align 4
  %13 = icmp sle i32 %12, 25
  br i1 %13, label %14, label %21

14:                                               ; preds = %11
  %15 = load i32, i32* %5, align 4
  %16 = sext i32 %15 to i64
  %17 = getelementptr inbounds [26 x i32], [26 x i32]* %4, i64 0, i64 %16
  store i32 0, i32* %17, align 4
  br label %18

18:                                               ; preds = %14
  %19 = load i32, i32* %5, align 4
  %20 = add nsw i32 %19, 1
  store i32 %20, i32* %5, align 4
  br label %11

21:                                               ; preds = %11
  store i32 0, i32* %5, align 4
  br label %22

22:                                               ; preds = %37, %21
  %23 = load i32, i32* %5, align 4
  %24 = load i32, i32* %7, align 4
  %25 = sub nsw i32 %24, 1
  %26 = icmp sle i32 %23, %25
  br i1 %26, label %27, label %40

27:                                               ; preds = %22
  %28 = load i32, i32* %5, align 4
  %29 = sext i32 %28 to i64
  %30 = getelementptr inbounds [999 x i32], [999 x i32]* %3, i64 0, i64 %29
  %31 = call i32 (i8*, ...) @__isoc99_scanf(i8* getelementptr inbounds ([3 x i8], [3 x i8]* @.str, i64 0, i64 0), i32* %30)
  %32 = load i32, i32* %5, align 4
  %33 = sext i32 %32 to i64
  %34 = getelementptr inbounds [999 x [26 x i8]], [999 x [26 x i8]]* %1, i64 0, i64 %33
  %35 = getelementptr inbounds [26 x i8], [26 x i8]* %34, i64 0, i64 0
  %36 = call i32 (i8*, ...) @__isoc99_scanf(i8* getelementptr inbounds ([3 x i8], [3 x i8]* @.str.1, i64 0, i64 0), i8* %35)
  br label %37

37:                                               ; preds = %27
  %38 = load i32, i32* %5, align 4
  %39 = add nsw i32 %38, 1
  store i32 %39, i32* %5, align 4
  br label %22

40:                                               ; preds = %22
  store i32 0, i32* %5, align 4
  br label %41

41:                                               ; preds = %75, %40
  %42 = load i32, i32* %5, align 4
  %43 = load i32, i32* %7, align 4
  %44 = sub nsw i32 %43, 1
  %45 = icmp sle i32 %42, %44
  br i1 %45, label %46, label %78

46:                                               ; preds = %41
  store i32 0, i32* %6, align 4
  br label %47

47:                                               ; preds = %71, %46
  %48 = load i32, i32* %5, align 4
  %49 = sext i32 %48 to i64
  %50 = getelementptr inbounds [999 x [26 x i8]], [999 x [26 x i8]]* %1, i64 0, i64 %49
  %51 = load i32, i32* %6, align 4
  %52 = sext i32 %51 to i64
  %53 = getelementptr inbounds [26 x i8], [26 x i8]* %50, i64 0, i64 %52
  %54 = load i8, i8* %53, align 1
  %55 = sext i8 %54 to i32
  %56 = icmp ne i32 %55, 0
  br i1 %56, label %57, label %74

57:                                               ; preds = %47
  %58 = load i32, i32* %5, align 4
  %59 = sext i32 %58 to i64
  %60 = getelementptr inbounds [999 x [26 x i8]], [999 x [26 x i8]]* %1, i64 0, i64 %59
  %61 = load i32, i32* %6, align 4
  %62 = sext i32 %61 to i64
  %63 = getelementptr inbounds [26 x i8], [26 x i8]* %60, i64 0, i64 %62
  %64 = load i8, i8* %63, align 1
  %65 = sext i8 %64 to i32
  %66 = sub nsw i32 %65, 65
  %67 = sext i32 %66 to i64
  %68 = getelementptr inbounds [26 x i32], [26 x i32]* %4, i64 0, i64 %67
  %69 = load i32, i32* %68, align 4
  %70 = add nsw i32 %69, 1
  store i32 %70, i32* %68, align 4
  br label %71

71:                                               ; preds = %57
  %72 = load i32, i32* %6, align 4
  %73 = add nsw i32 %72, 1
  store i32 %73, i32* %6, align 4
  br label %47

74:                                               ; preds = %47
  br label %75

75:                                               ; preds = %74
  %76 = load i32, i32* %5, align 4
  %77 = add nsw i32 %76, 1
  store i32 %77, i32* %5, align 4
  br label %41

78:                                               ; preds = %41
  %79 = getelementptr inbounds [26 x i32], [26 x i32]* %4, i64 0, i64 0
  %80 = load i32, i32* %79, align 16
  store i32 %80, i32* %9, align 4
  store i8 65, i8* %2, align 1
  store i32 0, i32* %5, align 4
  br label %81

81:                                               ; preds = %100, %78
  %82 = load i32, i32* %5, align 4
  %83 = icmp sle i32 %82, 25
  br i1 %83, label %84, label %103

84:                                               ; preds = %81
  %85 = load i32, i32* %5, align 4
  %86 = sext i32 %85 to i64
  %87 = getelementptr inbounds [26 x i32], [26 x i32]* %4, i64 0, i64 %86
  %88 = load i32, i32* %87, align 4
  %89 = load i32, i32* %9, align 4
  %90 = icmp sgt i32 %88, %89
  br i1 %90, label %91, label %99

91:                                               ; preds = %84
  %92 = load i32, i32* %5, align 4
  %93 = sext i32 %92 to i64
  %94 = getelementptr inbounds [26 x i32], [26 x i32]* %4, i64 0, i64 %93
  %95 = load i32, i32* %94, align 4
  store i32 %95, i32* %9, align 4
  %96 = load i32, i32* %5, align 4
  %97 = add nsw i32 %96, 65
  %98 = trunc i32 %97 to i8
  store i8 %98, i8* %2, align 1
  br label %99

99:                                               ; preds = %91, %84
  br label %100

100:                                              ; preds = %99
  %101 = load i32, i32* %5, align 4
  %102 = add nsw i32 %101, 1
  store i32 %102, i32* %5, align 4
  br label %81

103:                                              ; preds = %81
  %104 = load i8, i8* %2, align 1
  %105 = sext i8 %104 to i32
  %106 = call i32 (i8*, ...) @printf(i8* getelementptr inbounds ([4 x i8], [4 x i8]* @.str.2, i64 0, i64 0), i32 %105)
  %107 = load i32, i32* %9, align 4
  %108 = call i32 (i8*, ...) @printf(i8* getelementptr inbounds ([4 x i8], [4 x i8]* @.str.3, i64 0, i64 0), i32 %107)
  store i32 0, i32* %5, align 4
  br label %109

109:                                              ; preds = %148, %103
  %110 = load i32, i32* %5, align 4
  %111 = load i32, i32* %7, align 4
  %112 = sub nsw i32 %111, 1
  %113 = icmp sle i32 %110, %112
  br i1 %113, label %114, label %151

114:                                              ; preds = %109
  store i32 0, i32* %6, align 4
  br label %115

115:                                              ; preds = %144, %114
  %116 = load i32, i32* %5, align 4
  %117 = sext i32 %116 to i64
  %118 = getelementptr inbounds [999 x [26 x i8]], [999 x [26 x i8]]* %1, i64 0, i64 %117
  %119 = load i32, i32* %6, align 4
  %120 = sext i32 %119 to i64
  %121 = getelementptr inbounds [26 x i8], [26 x i8]* %118, i64 0, i64 %120
  %122 = load i8, i8* %121, align 1
  %123 = sext i8 %122 to i32
  %124 = icmp ne i32 %123, 0
  br i1 %124, label %125, label %147

125:                                              ; preds = %115
  %126 = load i32, i32* %5, align 4
  %127 = sext i32 %126 to i64
  %128 = getelementptr inbounds [999 x [26 x i8]], [999 x [26 x i8]]* %1, i64 0, i64 %127
  %129 = load i32, i32* %6, align 4
  %130 = sext i32 %129 to i64
  %131 = getelementptr inbounds [26 x i8], [26 x i8]* %128, i64 0, i64 %130
  %132 = load i8, i8* %131, align 1
  %133 = sext i8 %132 to i32
  %134 = load i8, i8* %2, align 1
  %135 = sext i8 %134 to i32
  %136 = icmp eq i32 %133, %135
  br i1 %136, label %137, label %143

137:                                              ; preds = %125
  %138 = load i32, i32* %5, align 4
  %139 = sext i32 %138 to i64
  %140 = getelementptr inbounds [999 x i32], [999 x i32]* %3, i64 0, i64 %139
  %141 = load i32, i32* %140, align 4
  %142 = call i32 (i8*, ...) @printf(i8* getelementptr inbounds ([4 x i8], [4 x i8]* @.str.3, i64 0, i64 0), i32 %141)
  br label %143

143:                                              ; preds = %137, %125
  br label %144

144:                                              ; preds = %143
  %145 = load i32, i32* %6, align 4
  %146 = add nsw i32 %145, 1
  store i32 %146, i32* %6, align 4
  br label %115

147:                                              ; preds = %115
  br label %148

148:                                              ; preds = %147
  %149 = load i32, i32* %5, align 4
  %150 = add nsw i32 %149, 1
  store i32 %150, i32* %5, align 4
  br label %109

151:                                              ; preds = %109
  ret void
}

declare dso_local i32 @__isoc99_scanf(i8*, ...) #1

declare dso_local i32 @printf(i8*, ...) #1


!llvm.module.flags = !{!0}
!llvm.ident = !{!1}

!0 = !{i32 1, !"wchar_size", i32 4}
!1 = !{!"clang version 10.0.0-4ubuntu1 "}
